(dp1
S'failed'
p2
(lp3
sS'source_names'
p4
(lp5
S'videopath/apps/analytics/tests/models/daily_analytics_data.py'
p6
aS'videopath/apps/analytics/tests/models/total_analytics_data.py'
p7
aS'videopath/apps/common/tests/services.py/elastic_transcoder_service.py'
p8
aS'videopath/apps/common/tests/services.py/mail_service.py'
p9
aS'videopath/apps/common/tests/services.py/s3_service.py'
p10
aS'videopath/apps/common/tests/services.py/stripe_service.py'
p11
aS'videopath/apps/files/tests/models/image_file.py'
p12
aS'videopath/apps/files/tests/models/video_file.py'
p13
aS'videopath/apps/files/tests/models/video_source.py'
p14
aS'videopath/apps/payments/tests/models.py/payment.py'
p15
aS'videopath/apps/payments/tests/models.py/payment_details.py'
p16
aS'videopath/apps/payments/tests/models.py/pending_subscription.py'
p17
aS'videopath/apps/payments/tests/models.py/quota_information.py'
p18
aS'videopath/apps/payments/tests/models.py/stripe_id.py'
p19
aS'videopath/apps/payments/tests/models.py/subscription.py'
p20
aS'videopath/apps/payments/tests/util/__init__.py'
p21
aS'videopath/apps/payments/tests/util/payment_export_util.py'
p22
aS'videopath/apps/payments/tests/util/payment_util.py'
p23
aS'videopath/apps/payments/tests/util/quota_util.py'
p24
aS'videopath/apps/payments/tests/util/subscription_util.py'
p25
aS'videopath/apps/payments/tests/util/usage_util.py'
p26
aS'videopath/apps/users/tests/misc/access.py'
p27
aS'videopath/apps/users/tests/misc/signup.py'
p28
aS'videopath/apps/users/tests/models/__init__.py'
p29
aS'videopath/apps/users/tests/models/authentication_token.py'
p30
aS'videopath/apps/users/tests/models/automated_mail.py'
p31
aS'videopath/apps/users/tests/models/one_time_authentication_token.py'
p32
aS'videopath/apps/users/tests/models/user_activity.py'
p33
aS'videopath/apps/users/tests/models/user_activity_day.py'
p34
aS'videopath/apps/users/tests/models/user_settings.py'
p35
aS'videopath/apps/users/tests/util/authentication_util.py'
p36
aS'videopath/apps/users/tests/util/auto_mail_util.py'
p37
aS'videopath/apps/users/tests/util/token_util.py'
p38
aS'videopath/apps/videos/tests/endpoints/__init__.py'
p39
aS'videopath/apps/videos/tests/endpoints/endpoints_base.py'
p40
aS'videopath/apps/videos/tests/endpoints/marker.py'
p41
aS'videopath/apps/videos/tests/endpoints/marker_content.py'
p42
aS'videopath/apps/videos/tests/endpoints/video.py'
p43
aS'videopath/apps/videos/tests/models/__init__.py'
p44
aS'videopath/apps/videos/tests/models/marker.py'
p45
aS'videopath/apps/videos/tests/models/marker_content.py'
p46
aS'videopath/apps/videos/tests/models/video.py'
p47
aS'videopath/apps/videos/tests/models/video_revision.py'
p48
aS'videopath/apps/videos/tests/util/video_export_util.py'
p49
aS'54'
p50
aS'videopath/apps/analytics/tests/endpoints/endpoints.py'
p51
asS'ids'
p52
(dp53
I1
(S'/Users/David/videopath/repos/api/videopath/apps/analytics/tests/models/daily_analytics_data.py'
S'daily_analytics_data'
S'TestCase.test_creation'
tp54
sI2
(S'/Users/David/videopath/repos/api/videopath/apps/analytics/tests/models/total_analytics_data.py'
S'total_analytics_data'
S'TestCase.test_creation'
tp55
sI3
(S'/Users/David/videopath/repos/api/videopath/apps/common/tests/services.py/elastic_transcoder_service.py'
S'elastic_transcoder_service'
S'TestClass.test_start_job'
tp56
sI4
(S'/Users/David/videopath/repos/api/videopath/apps/common/tests/services.py/mail_service.py'
S'mail_service'
S'TestClass.test_something'
tp57
sI5
(S'/Users/David/videopath/repos/api/videopath/apps/common/tests/services.py/s3_service.py'
S's3_service'
S'TestClass.test_upload_and_delete'
tp58
sI6
(S'/Users/David/videopath/repos/api/videopath/apps/common/tests/services.py/stripe_service.py'
S'stripe_service'
p59
S'TestClass.test_cards'
tp60
sI7
(S'/Users/David/videopath/repos/api/videopath/apps/common/tests/services.py/stripe_service.py'
g59
S'TestClass.test_charge_fail'
tp61
sI8
(S'/Users/David/videopath/repos/api/videopath/apps/common/tests/services.py/stripe_service.py'
g59
S'TestClass.test_charge_success'
tp62
sI9
(S'/Users/David/videopath/repos/api/videopath/apps/files/tests/models/image_file.py'
S'image_file'
S'TestCase.test_creation'
tp63
sI10
(S'/Users/David/videopath/repos/api/videopath/apps/files/tests/models/video_file.py'
S'video_file'
S'TestCase.test_creation'
tp64
sI11
(S'/Users/David/videopath/repos/api/videopath/apps/files/tests/models/video_source.py'
S'video_source'
S'TestCase.test_creation'
tp65
sI12
(S'/Users/David/videopath/repos/api/videopath/apps/payments/tests/models.py/payment.py'
S'payment'
S'TestCase.test_creation'
tp66
sI13
(S'/Users/David/videopath/repos/api/videopath/apps/payments/tests/models.py/payment_details.py'
S'payment_details'
S'TestCase.test_creation'
tp67
sI14
(S'/Users/David/videopath/repos/api/videopath/apps/payments/tests/models.py/pending_subscription.py'
S'pending_subscription'
S'TestCase.test_creation'
tp68
sI15
(S'/Users/David/videopath/repos/api/videopath/apps/payments/tests/models.py/quota_information.py'
S'quota_information'
S'TestCase.test_creation'
tp69
sI16
(S'/Users/David/videopath/repos/api/videopath/apps/payments/tests/models.py/stripe_id.py'
S'stripe_id'
S'TestCase.test_creation'
tp70
sI17
(S'/Users/David/videopath/repos/api/videopath/apps/payments/tests/models.py/subscription.py'
S'subscription'
S'TestCase.test_creation'
tp71
sI18
(S'/Users/David/videopath/repos/api/videopath/apps/payments/tests/util/payment_export_util.py'
S'videopath.apps.payments.tests.util.payment_export_util'
S'TestCase.test_export'
tp72
sI19
(S'/Users/David/videopath/repos/api/videopath/apps/payments/tests/util/payment_util.py'
S'videopath.apps.payments.tests.util.payment_util'
p73
S'TestCase.test_creation'
tp74
sI20
(S'/Users/David/videopath/repos/api/videopath/apps/payments/tests/util/payment_util.py'
g73
S'TestCase.test_processing'
tp75
sI21
(S'/Users/David/videopath/repos/api/videopath/apps/payments/tests/util/quota_util.py'
S'videopath.apps.payments.tests.util.quota_util'
S'TestCase.test_check_quotas'
tp76
sI22
(S'/Users/David/videopath/repos/api/videopath/apps/payments/tests/util/subscription_util.py'
S'videopath.apps.payments.tests.util.subscription_util'
p77
S'TestCase.test_plan_auto_switching'
tp78
sI23
(S'/Users/David/videopath/repos/api/videopath/apps/payments/tests/util/subscription_util.py'
g77
S'TestCase.test_plan_renewal'
tp79
sI24
(S'/Users/David/videopath/repos/api/videopath/apps/payments/tests/util/subscription_util.py'
g77
S'TestCase.test_remaining_credit'
tp80
sI25
(S'/Users/David/videopath/repos/api/videopath/apps/payments/tests/util/subscription_util.py'
g77
S'TestCase.test_subscribe_to_plan'
tp81
sI26
(S'/Users/David/videopath/repos/api/videopath/apps/payments/tests/util/subscription_util.py'
g77
S'TestCase.test_unsubscribe_from_plan'
tp82
sI27
(S'/Users/David/videopath/repos/api/videopath/apps/payments/tests/util/subscription_util.py'
g77
S'TestCase.test_upgrading_subscription'
tp83
sI28
(S'/Users/David/videopath/repos/api/videopath/apps/payments/tests/util/usage_util.py'
S'videopath.apps.payments.tests.util.usage_util'
S'TestCase.test_usage_current'
tp84
sI29
(S'/Users/David/videopath/repos/api/videopath/apps/users/tests/models/authentication_token.py'
S'videopath.apps.users.tests.models.authentication_token'
S'TestCase.test_creation'
tp85
sI30
(S'/Users/David/videopath/repos/api/videopath/apps/users/tests/models/automated_mail.py'
S'videopath.apps.users.tests.models.automated_mail'
S'TestCase.test_creation'
tp86
sI31
(S'/Users/David/videopath/repos/api/videopath/apps/users/tests/models/one_time_authentication_token.py'
S'videopath.apps.users.tests.models.one_time_authentication_token'
S'TestCase.test_creation'
tp87
sI32
(S'/Users/David/videopath/repos/api/videopath/apps/users/tests/models/user_activity.py'
S'videopath.apps.users.tests.models.user_activity'
S'TestCase.test_creation'
tp88
sI33
(S'/Users/David/videopath/repos/api/videopath/apps/users/tests/models/user_activity_day.py'
S'videopath.apps.users.tests.models.user_activity_day'
S'TestCase.test_creation'
tp89
sI34
(S'/Users/David/videopath/repos/api/videopath/apps/users/tests/models/user_settings.py'
S'videopath.apps.users.tests.models.user_settings'
S'TestCase.test_creation'
tp90
sI35
(S'/Users/David/videopath/repos/api/videopath/apps/videos/tests/endpoints/marker.py'
S'videopath.apps.videos.tests.endpoints.marker'
S'TestCase.test_get_access'
tp91
sI36
(S'/Users/David/videopath/repos/api/videopath/apps/videos/tests/endpoints/marker_content.py'
S'videopath.apps.videos.tests.endpoints.marker_content'
S'TestCase.test_get_access'
tp92
sI37
(S'/Users/David/videopath/repos/api/videopath/apps/videos/tests/endpoints/video.py'
S'videopath.apps.videos.tests.endpoints.video'
p93
S'TestCase.test_get_access'
tp94
sI38
(S'/Users/David/videopath/repos/api/videopath/apps/videos/tests/endpoints/video.py'
g93
S'TestCase.test_other_urls'
tp95
sI39
(S'/Users/David/videopath/repos/api/videopath/apps/videos/tests/models/marker.py'
S'videopath.apps.videos.tests.models.marker'
S'TestCase.test_creation'
tp96
sI40
(S'/Users/David/videopath/repos/api/videopath/apps/videos/tests/models/marker_content.py'
S'videopath.apps.videos.tests.models.marker_content'
S'TestCase.test_creation'
tp97
sI41
(S'/Users/David/videopath/repos/api/videopath/apps/videos/tests/models/video.py'
S'videopath.apps.videos.tests.models.video'
p98
S'TestCase.test_create_new_draft'
tp99
sI42
(S'/Users/David/videopath/repos/api/videopath/apps/videos/tests/models/video.py'
g98
S'TestCase.test_creation'
tp100
sI43
(S'/Users/David/videopath/repos/api/videopath/apps/videos/tests/models/video.py'
g98
S'TestCase.test_delete_draft'
tp101
sI44
(S'/Users/David/videopath/repos/api/videopath/apps/videos/tests/models/video.py'
g98
S'TestCase.test_publish_unpublish'
tp102
sI45
(S'/Users/David/videopath/repos/api/videopath/apps/videos/tests/models/video_revision.py'
S'videopath.apps.videos.tests.models.video_revision'
p103
S'TestCase.test_creation'
tp104
sI46
(S'/Users/David/videopath/repos/api/videopath/apps/videos/tests/models/video_revision.py'
g103
S'TestCase.test_duplication'
tp105
sI47
(S'/Users/David/videopath/repos/api/videopath/apps/users/tests/misc/access.py'
S'access'
p106
S'AccessTest.test_anonymous_access'
tp107
sI48
(S'/Users/David/videopath/repos/api/videopath/apps/users/tests/misc/access.py'
g106
S'AccessTest.test_token_access'
tp108
sI49
(S'/Users/David/videopath/repos/api/videopath/apps/users/tests/misc/signup.py'
S'signup'
S'SignupTest.test_signup'
tp109
sI50
(S'/Users/David/videopath/repos/api/videopath/apps/users/tests/util/auto_mail_util.py'
S'auto_mail_util'
S'TestCase.test_creation'
tp110
sI51
(S'/Users/David/videopath/repos/api/videopath/apps/users/tests/util/token_util.py'
S'token_util'
S'TestCase.test_activity_tracking'
tp111
sI52
(S'/Users/David/videopath/repos/api/videopath/apps/videos/tests/util/video_export_util.py'
S'video_export_util'
S'TestCase.test_export_video'
tp112
sI53
(S'/Users/David/videopath/repos/api/videopath/apps/videos/tests/endpoints/video.py'
S'videopath.apps.videos.tests.endpoints.video'
S'TestCase.test_create_video'
tp113
sI54
(S'/Users/David/videopath/repos/api/videopath/apps/analytics/tests/endpoints/endpoints.py'
S'endpoints'
S'EndpointsBaseTestCase.test_endpoints'
tp114
sI55
(S'/Users/David/videopath/repos/api/videopath/apps/videos/tests/endpoints/marker.py'
S'videopath.apps.videos.tests.endpoints.marker'
S'TestCase.test_creation'
tp115
sI56
(S'/Users/David/videopath/repos/api/videopath/apps/videos/tests/endpoints/marker_content.py'
S'videopath.apps.videos.tests.endpoints.marker_content'
S'TestCase.test_creation'
tp116
sI57
(S'/Users/David/videopath/repos/api/videopath/apps/videos/tests/endpoints/video.py'
S'videopath.apps.videos.tests.endpoints.video'
p117
S'TestCase.test_creation'
tp118
sI58
(S'/Users/David/videopath/repos/api/videopath/apps/videos/tests/endpoints/video.py'
g117
S'TestCase.test_import_demo'
tp119
sI59
(S'/Users/David/videopath/repos/api/videopath/apps/videos/tests/endpoints/video.py'
g117
S'TestCase.test_publish'
tp120
sI60
(S'/Users/David/videopath/repos/api/videopath/apps/videos/tests/endpoints/video.py'
g117
S'TestCase.test_send_share_mail'
tp121
sI61
(S'/Users/David/videopath/repos/api/videopath/apps/payments/tests/util/payment_export_util.py'
S'util.payment_export_util'
S'TestCase.test_export'
tp122
sI62
(S'/Users/David/videopath/repos/api/videopath/apps/payments/tests/util/payment_util.py'
S'util.payment_util'
p123
S'TestCase.test_creation'
tp124
sI63
(S'/Users/David/videopath/repos/api/videopath/apps/payments/tests/util/payment_util.py'
g123
S'TestCase.test_processing'
tp125
sI64
(S'/Users/David/videopath/repos/api/videopath/apps/payments/tests/util/quota_util.py'
S'util.quota_util'
S'TestCase.test_check_quotas'
tp126
sI65
(S'/Users/David/videopath/repos/api/videopath/apps/payments/tests/util/subscription_util.py'
S'util.subscription_util'
p127
S'TestCase.test_plan_auto_switching'
tp128
sI66
(S'/Users/David/videopath/repos/api/videopath/apps/payments/tests/util/subscription_util.py'
g127
S'TestCase.test_plan_renewal'
tp129
sI67
(S'/Users/David/videopath/repos/api/videopath/apps/payments/tests/util/subscription_util.py'
g127
S'TestCase.test_remaining_credit'
tp130
sI68
(S'/Users/David/videopath/repos/api/videopath/apps/payments/tests/util/subscription_util.py'
g127
S'TestCase.test_subscribe_to_plan'
tp131
sI69
(S'/Users/David/videopath/repos/api/videopath/apps/payments/tests/util/subscription_util.py'
g127
S'TestCase.test_unsubscribe_from_plan'
tp132
sI70
(S'/Users/David/videopath/repos/api/videopath/apps/payments/tests/util/subscription_util.py'
g127
S'TestCase.test_upgrading_subscription'
tp133
sI71
(S'/Users/David/videopath/repos/api/videopath/apps/payments/tests/util/usage_util.py'
S'util.usage_util'
S'TestCase.test_usage_current'
tp134
ss.